target datalayout = "e-m:e-p270:32:32-p271:32:32-p272:64:64-i64:64-i128:128-f80:128-n8:16:32:64-S128"
target triple = "x86_64-pc-linux-gnu"

%class.dtTileCache = type { i32, i32, ptr, ptr, ptr, i32, i32, %struct.dtTileCacheParams, ptr, ptr, ptr, ptr, ptr, [64 x %"struct.dtTileCache::ObstacleRequest"], i32, [64 x i32], i32 }
%struct.dtTileCacheParams = type { [3 x float], float, float, i32, i32, float, float, float, float, i32, i32 }
%"struct.dtTileCache::ObstacleRequest" = type { i32, i32 }
%struct.dtCompressedTile = type { i32, ptr, ptr, i32, ptr, i32, i32, ptr }
%struct.dtTileCacheLayerHeader = type { i32, i32, i32, i32, i32, [3 x float], [3 x float], i16, i16, i8, i8, i8, i8, i8, i8 }

; Function Attrs: mustprogress nounwind uwtable
define linkonce_odr noundef i32 @_Z15computeTileHashiii(i32 noundef %0, i32 noundef %1, i32 noundef %2) #2 comdat {
  %4 = alloca i32, align 4
  %5 = alloca i32, align 4
  %6 = alloca i32, align 4
  %7 = alloca i32, align 4
  %8 = alloca i32, align 4
  %9 = alloca i32, align 4
  store i32 %0, ptr %4, align 4
  store i32 %1, ptr %5, align 4
  store i32 %2, ptr %6, align 4
  store i32 -1918454973, ptr %7, align 4
  store i32 -669632447, ptr %8, align 4
  %10 = load i32, ptr %4, align 4
  %11 = mul i32 -1918454973, %10
  %12 = load i32, ptr %5, align 4
  %13 = mul i32 -669632447, %12
  %14 = add i32 %11, %13
  store i32 %14, ptr %9, align 4
  %15 = load i32, ptr %9, align 4
  %16 = load i32, ptr %6, align 4
  %17 = and i32 %15, %16
  ret i32 %17
}

; Function Attrs: mustprogress uwtable
define noundef ptr @_ZN11dtTileCache9getTileAtEiii(ptr noundef nonnull align 8 dereferenceable(912) %0, i32 noundef %1, i32 noundef %2, i32 noundef %3) #0 align 2 {
  %5 = alloca ptr, align 8
  %6 = alloca ptr, align 8
  %7 = alloca i32, align 4
  %8 = alloca i32, align 4
  %9 = alloca i32, align 4
  %10 = alloca i32, align 4
  %11 = alloca ptr, align 8
  store ptr %0, ptr %6, align 8
  store i32 %1, ptr %7, align 4
  store i32 %2, ptr %8, align 4
  store i32 %3, ptr %9, align 4
  %12 = load ptr, ptr %6, align 8
  %13 = load i32, ptr %7, align 4
  %14 = load i32, ptr %8, align 4
  %15 = getelementptr inbounds %class.dtTileCache, ptr %12, i32 0, i32 1
  %16 = load i32, ptr %15, align 4
  %17 = call noundef i32 @_Z15computeTileHashiii(i32 noundef %13, i32 noundef %14, i32 noundef %16)
  store i32 %17, ptr %10, align 4
  %18 = getelementptr inbounds %class.dtTileCache, ptr %12, i32 0, i32 2
  %19 = load ptr, ptr %18, align 8
  %20 = load i32, ptr %10, align 4
  %21 = sext i32 %20 to i64
  %22 = getelementptr inbounds ptr, ptr %19, i64 %21
  %23 = load ptr, ptr %22, align 8
  store ptr %23, ptr %11, align 8
  br label %24

24:                                               ; preds = %58, %4
  %25 = load ptr, ptr %11, align 8
  %26 = icmp ne ptr %25, null
  br i1 %26, label %27, label %62

27:                                               ; preds = %24
  %28 = load ptr, ptr %11, align 8
  %29 = getelementptr inbounds %struct.dtCompressedTile, ptr %28, i32 0, i32 1
  %30 = load ptr, ptr %29, align 8
  %31 = icmp ne ptr %30, null
  br i1 %31, label %32, label %58

32:                                               ; preds = %27
  %33 = load ptr, ptr %11, align 8
  %34 = getelementptr inbounds %struct.dtCompressedTile, ptr %33, i32 0, i32 1
  %35 = load ptr, ptr %34, align 8
  %36 = getelementptr inbounds %struct.dtTileCacheLayerHeader, ptr %35, i32 0, i32 2
  %37 = load i32, ptr %36, align 4
  %38 = load i32, ptr %7, align 4
  %39 = icmp eq i32 %37, %38
  br i1 %39, label %40, label %58

40:                                               ; preds = %32
  %41 = load ptr, ptr %11, align 8
  %42 = getelementptr inbounds %struct.dtCompressedTile, ptr %41, i32 0, i32 1
  %43 = load ptr, ptr %42, align 8
  %44 = getelementptr inbounds %struct.dtTileCacheLayerHeader, ptr %43, i32 0, i32 3
  %45 = load i32, ptr %44, align 4
  %46 = load i32, ptr %8, align 4
  %47 = icmp eq i32 %45, %46
  br i1 %47, label %48, label %58

48:                                               ; preds = %40
  %49 = load ptr, ptr %11, align 8
  %50 = getelementptr inbounds %struct.dtCompressedTile, ptr %49, i32 0, i32 1
  %51 = load ptr, ptr %50, align 8
  %52 = getelementptr inbounds %struct.dtTileCacheLayerHeader, ptr %51, i32 0, i32 4
  %53 = load i32, ptr %52, align 4
  %54 = load i32, ptr %9, align 4
  %55 = icmp eq i32 %53, %54
  br i1 %55, label %56, label %58

56:                                               ; preds = %48
  %57 = load ptr, ptr %11, align 8
  store ptr %57, ptr %5, align 8
  br label %63

58:                                               ; preds = %48, %40, %32, %27
  %59 = load ptr, ptr %11, align 8
  %60 = getelementptr inbounds %struct.dtCompressedTile, ptr %59, i32 0, i32 7
  %61 = load ptr, ptr %60, align 8
  store ptr %61, ptr %11, align 8
  br label %24, !llvm.loop !9

62:                                               ; preds = %24
  store ptr null, ptr %5, align 8
  br label %63

63:                                               ; preds = %62, %56
  %64 = load ptr, ptr %5, align 8
  ret ptr %64
}