; Function Attrs: mustprogress nofree norecurse nosync nounwind willreturn memory(read, inaccessiblemem: none) uwtable
define noundef ptr @_ZN11dtTileCache9getTileAtEiii(ptr noundef nonnull readonly align 8 captures(none) dereferenceable(912) %0, i32 noundef %1, i32 noundef %2, i32 noundef %3) local_unnamed_addr #7 align 2 {
  %5 = getelementptr inbounds nuw i8, ptr %0, i64 4
  %6 = load i32, ptr %5, align 4
  %7 = mul i32 %1, -1918454973
  %8 = mul i32 %2, -669632447
  %9 = add i32 %8, %7
  %10 = and i32 %6, %9
  %11 = getelementptr inbounds nuw i8, ptr %0, i64 8
  %12 = load ptr, ptr %11, align 8
  %13 = sext i32 %10 to i64
  %14 = getelementptr inbounds ptr, ptr %12, i64 %13
  %.017 = load ptr, ptr %14, align 8
  %.not18 = icmp eq ptr %.017, null
  br i1 %.not18, label %._crit_edge, label %.lr.ph

.lr.ph:                                           ; preds = %4, %29
  %.019 = phi ptr [ %.0, %29 ], [ %.017, %4 ]
  %15 = getelementptr inbounds nuw i8, ptr %.019, i64 8
  %16 = load ptr, ptr %15, align 8
  %.not16 = icmp eq ptr %16, null
  br i1 %.not16, label %29, label %17

17:                                               ; preds = %.lr.ph
  %18 = getelementptr inbounds nuw i8, ptr %16, i64 8
  %19 = load i32, ptr %18, align 4
  %20 = icmp eq i32 %19, %1
  br i1 %20, label %21, label %29

21:                                               ; preds = %17
  %22 = getelementptr inbounds nuw i8, ptr %16, i64 12
  %23 = load i32, ptr %22, align 4
  %24 = icmp eq i32 %23, %2
  br i1 %24, label %25, label %29

25:                                               ; preds = %21
  %26 = getelementptr inbounds nuw i8, ptr %16, i64 16
  %27 = load i32, ptr %26, align 4
  %28 = icmp eq i32 %27, %3
  br i1 %28, label %._crit_edge, label %29

29:                                               ; preds = %25, %21, %17, %.lr.ph
  %30 = getelementptr inbounds nuw i8, ptr %.019, i64 48
  %.0 = load ptr, ptr %30, align 8
  %.not = icmp eq ptr %.0, null
  br i1 %.not, label %._crit_edge, label %.lr.ph, !llvm.loop !9

._crit_edge:                                      ; preds = %25, %29, %4
  %.0.lcssa = phi ptr [ null, %4 ], [ null, %29 ], [ %.019, %25 ]
  ret ptr %.0.lcssa
}